(dp1
S'output'
p2
S"<type 'exceptions.TypeError'> id() takes exactly one argument (0 given)"
p3
sS'layer'
p4
S'/home/mohbastawi/web2py/applications/app1/controllers/reports.py'
p5
sS'code'
p6
S"# -*- coding: utf-8 -*-\n# try something like\ndef index():\n    return locals()\ndef view_order():\n    r=request.vars\n    row=db(db.orday.id==id).select()\n    return locals()\n    \n    \n    \ndef all_orders():\n    rows=db(db.orday).select()\n    return locals()\n\ndef today_orders():\n    \n    form=SQLFORM.factory(Field('chdate','date',label='\xd8\xa7\xd8\xae\xd8\xaa\xd8\xa7\xd8\xb1 \xd8\xaa\xd8\xa7\xd8\xb1\xd9\x8a\xd8\xae \xd8\xa7\xd9\x84\xd8\xaa\xd9\x82\xd8\xb1\xd9\x8a\xd8\xb1'))\n    if form.process().accepted:\n        t=form.vars.chdate\n        tq=(db.orday.ordate==t)\n    else:\n        t=datetime.date.today()\n        tq=(db.orday.ordate==t)    \n    rows=db(tq).select()\n    todaysum=db(tq).select(db.orday.totalcost.sum())\n    count=db(tq).select(db.orday.totalcost.count())\n    return locals()\ndef doc_report():\n    form=SQLFORM.factory(Field('doct','referenc doct',requires=IS_IN_DB(db,db.doct.id,'%(docname)s'),label='\xd8\xa7\xd8\xae\xd8\xaa\xd8\xa7\xd8\xb1 \xd8\xa7\xd8\xb3\xd9\x85 \xd8\xa7\xd9\x84\xd8\xaf\xd9\x83\xd8\xaa\xd9\x88\xd8\xb1'),\n                        Field('startd','date',requires=IS_NOT_EMPTY(),label='\xd9\x85\xd9\x86 \xd9\x8a\xd9\x88\xd9\x85'),\n                        Field('endd','date',requires=IS_NOT_EMPTY(),label='\xd8\xa5\xd9\x84\xd9\x89 \xd9\x8a\xd9\x88\xd9\x85'))\n    if form.process().accepted:\n        id=form.vars.doct\n        st=form.vars.startd\n        en=form.vars.endd\n        docq=(db.orday.docname==id and db.orday.ordate>=st and db.orday.ordate<=en)\n    else:\n        docq=(db.orday.docname==1)\n    rows=db(docq).select()\n    todaysum=db(docq).select(db.orday.totalcost.sum())\n    return locals()\n\nresponse._vars=response._caller(view_order)\n"
p7
sS'snapshot'
p8
(dp9
sS'traceback'
p10
S'Traceback (most recent call last):\n  File "/home/mohbastawi/web2py/gluon/restricted.py", line 227, in restricted\n    exec ccode in environment\n  File "/home/mohbastawi/web2py/applications/app1/controllers/reports.py", line 44, in <module>\n  File "/home/mohbastawi/web2py/gluon/globals.py", line 412, in <lambda>\n    self._caller = lambda f: f()\n  File "/home/mohbastawi/web2py/applications/app1/controllers/reports.py", line 7, in view_order\n    row=db(db.orday.id==id).select()\n  File "/home/mohbastawi/web2py/gluon/packages/dal/pydal/objects.py", line 2002, in select\n    return adapter.select(self.query,fields,attributes)\n  File "/home/mohbastawi/web2py/gluon/packages/dal/pydal/adapters/sqlite.py", line 122, in select\n    return super(SQLiteAdapter, self).select(query, fields, attributes)\n  File "/home/mohbastawi/web2py/gluon/packages/dal/pydal/adapters/base.py", line 1273, in select\n    sql = self._select(query, fields, attributes)\n  File "/home/mohbastawi/web2py/gluon/packages/dal/pydal/adapters/base.py", line 1160, in _select\n    sql_w = \' WHERE \' + self.expand(query) if query else \'\'\n  File "/home/mohbastawi/web2py/gluon/packages/dal/pydal/adapters/base.py", line 945, in expand\n    rv = op(first, second, **optional_args)\n  File "/home/mohbastawi/web2py/gluon/packages/dal/pydal/adapters/base.py", line 839, in EQ\n    self.expand(second, first.type))\n  File "/home/mohbastawi/web2py/gluon/packages/dal/pydal/adapters/base.py", line 955, in expand\n    rv = self.represent(expression, field_type)\n  File "/home/mohbastawi/web2py/gluon/packages/dal/pydal/adapters/base.py", line 1386, in represent\n    obj = obj()\nTypeError: id() takes exactly one argument (0 given)\n'
p11
s.